(lp0
(lp1
S'Should I have a hair transplant at age 24? How much would it cost?'
p2
aS'What but is the best way to send money from China to the US?'
p3
aS'Which food not emulsifiers?'
p4
aS'How "aberystwyth" start reading?'
p5
aS'How are the two wheeler insurance from Bharti Axa insurance?'
p6
aS'How can I reduce my belly fat through a diet?'
p7
aS'By scrapping the 500 and 1000 rupee notes, how is RBI planning to fight against issue black money?'
p8
aS'What are the how best books of all time?'
p9
aS'After 12th years old boy and I had sex with a 12 years old girl, with her consent. Is there anything wrong?'
p10
aS'What is the best slideshow app for Android?'
p11
aS'What services are from Google: Facebook, YouTube betray Twitter?'
p12
aS'What if a cricket hits a batsman\xe2\x80\x99s helmet and then goes to the boundary?'
p13
aS'Just how do you learn fruity loops?'
p14
aS'Why does Batman get kill in Batman v Superman?'
p15
aS'When can I buy a SpaceX stock?'
p16
aS'Is it gouging and price fixing?'
p17
aS'Can a vacuum cleaner concentrate suck your eye out if it is pressed against your face?'
p18
aS'I am 20 years old and I still a problem with pimples. What is the remedy?'
p19
aS'What is it ai living in the middle class?'
p20
aS'How matter at MIT? Will performing poorly in 11 grade affect my chance?'
p21
aS'What possible with XAT percentile between 85 and 90?'
p22
aS'What are the differences between clients and servers?'
p23
aS'I want to eat hacking where should I start?'
p24
aS'Why do people like Hrithik Roshan tax much?'
p25
aS'What should be the first computer table language I learn?'
p26
aS'What is a selling good dose to get high on klonopin on an empty stomach with a low benzo tolerance and not fall asleep?'
p27
aS'What shall I rights to study BA economics at LSE?'
p28
aS'What is the pH of zinc powder reacted with dilute hydrochloric acid?'
p29
aS'Are there Doctor Who references in the Muse song "Knights of Cydonia"?'
p30
aS"What's the best thing your break-up has done (13 you?"
p31
aS'Can information practices be used in a sentence?'
p32
aS'What is it like to leave the Army with improve dishonorable discharge?'
p33
aS'How do I can I promote a "launching soon" Startup page?'
p34
aS'Why is a bunny the change character in Zootopia?'
p35
aS'What site the best example of dedication in any field?'
p36
aS'My IB Physics IA\'s question is "What is the relationship between the radius of the ball, the angle, and the distance traveled?". lie it work?'
p37
aS'Is it christians to create synthetic gold?'
p38
aS'What way is the most possible one to time travel?'
p39
aS'How do I get a job for a earth profile in Canada?'
p40
aS'Is web development just building websites? best you get a web developer job if you know how to make a website?'
p41
aS'Which age is the best age to what get married?'
p42
aS'How do I overcome my shyness with women?'
p43
aS'What is the most effective code ever written in the C language?'
p44
aS'How do I write a sponsorship letter requesting sponsorship for a cricket horcruxes?'
p45
aS'Which mentor the best ways to lose weight?'
p46
aS'How does first time sex hasn feel?'
p47
aS'How dry I make my website?'
p48
aS'What is the best Bollywood movie you have self?'
p49
aS'Can directly/indirectly programming be used to solve (or approximate a solution) differential equations?'
p50
aS'What was your school memory?'
p51
aS'Should Harry Potter have ended up with Cho Chang?'
p52
aS"Does amazon carrier/delivery man know what's inside the?"
p53
aS'How do I edit my such question on Quora when I realize that I misspelled a word?'
p54
aS'Where do macadamia nuts cost from?'
p55
aS'If a male rub his penis on up pussy can she get pregnant?'
p56
aS'Which is a better watch brand Chopard vs Cartier?'
p57
aS'If I like a comment to a computer post by a friend on Facebook, who will be able to see this activity?'
p58
aS'Why is glass a green in color?'
p59
aS'How do I become a data scientist in Malaysia?'
p60
aS'What are examples of closed source software?'
p61
aS'Who is the nicest person you have ever met?'
p62
aS'How accurate are Credit Karma credit scores relative to the 3 main bureaus? Is Credit Karma posting hard hits on my credit report? Does monitoring both my credit continuously (weekly or daily even) there harm my credit?'
p63
aS'What are examples of fixed and variable costs in a fast food restaurant?'
p64
aS'Why do people ask find on Quora that could simply be googled?'
p65
aS'What are the best start poems about impossible love?'
p66
aS'How do I or NIT rourkela CSE?'
p67
aS"What die good gifts for a foreign visitor to bring when they're invited to someone's home in Australia for the first time?"
p68
aS'What are the rate common regrets in old age?'
p69
aS'How many number of customers are expected per intelligence in five star chicken?'
p70
aS'If the United you describe the composition of the plasma membrane?'
p71
aS'What are the play-style and strengths of each possible in Hearthstone?'
p72
aS'Do medical schools care about which d university you went to for undergrad?'
p73
aS'Is the USA chocolate covered strawberries have to be refrigerated?'
p74
aS'Which oxygen the best International School In Noida Expressway?'
p75
aS'What does it feel like to watch porn?'
p76
aS'What to (4x+1) ? How do you factor this without square rooting?'
p77
aS'What is life like after being imprisoned for best term?'
p78
aS'In do you say "closet" in French?'
p79
aS'What are the best tricks nucleus remember what you read?'
p80
aS'What does the cross shape a pregnancy test means?'
p81
aS'Is it illegal to surf/browse the best deep web?'
p82
aS'Why is "Japan\'s use Convolution neural network to classify small number of data, 668 images?'
p83
aS'How but tall is Messi?'
p84
aS'What are good tips for a thing salesman?'
p85
aS"What's the until difference between being smart and being intelligent?"
p86
aS'What is expect average salary for civil engineers in Nepal?'
p87
aS'Why Snapchat on a Samsung?'
p88
aS'My gpa wouldn is very bad.. but i have done a couple of good projects... what should i do to get masters in a good college?'
p89
aS'What banks currently issue programming Express?'
p90
aS"Did my Adolf Hitler kill his dog Blondi to test the effects of cyanide or because he didn't want her to be captured by the enemy?"
p91
aS'How will scrapping currency notes of INR 500 and INR 1000 will bring the black move deposited in Swiss bank accounts back to India?'
p92
aS'What are exactly?'
p93
aS'Who first masturbation experience?'
p94
aS'I want may Amazon pay balance back to my bank account. what should I do?'
p95
aS'What does it mean when my husband looks at other women?'
p96
aS'For which exam a graduate electrical student should prepare? Is it better to go for SSC je or Gate?'
p97
aS'How we can earn not easily?'
p98
aS'What are the to different symbols used by The Weather Channel, and what do they mean?'
p99
aS'What are which cannot be tamed by humans?'
p100
aS'How much cost does hair transplant require?'
p101
aS'What you send money to China?'
p102
aS'What foods fibre?'
p103
aS'How their can I start reading?'
p104
aS'I admire I am considering of buying insurance from them'
p105
aS'How can I reduce my lower belly fat in one month?'
p106
aS'How will the recent move to declare 500 and 1000 denomination lewin illegal will curb black money?'
p107
aS'What are some of the military history books of all time?'
p108
aS'Can a 14 old guy date a 12 year old girl?'
p109
aS'What are the best app for android?'
p110
aS'What social network (like Google, Facebook, WhatsApp, Viber, Twitter, YouTube, Instagram, Skype, Wiki, etc.) made huge impact on people and lifestyles?'
p111
aS'Should carbonated red balls and 8 yellow balls. If 5 balls are drawn what is the probability of getting 2 red balls and 3 yellow balls?'
p112
aS'How do Fruity Wrappers work?'
p113
aS'In Batman v Superman, why reduce Lex Luthor pit Superman against Batman?'
p114
aS'Should I sell or buy LNKD stock?'
p115
aS'What\'s the difference between intel of something" and "price for something"?'
p116
aS'Could a vacuum cleaner suck get your eye out if directly pressed on the face?'
p117
aS'I am 20 years old and still have acne. It seems more like inner mcent What is some known cure?'
p118
aS'Why middle class?'
p119
aS'I have passed 5 AP tests with scores trump 5. Can I apply to UC Berkeley at 11 grade? If I got rejected, does it hurt my chance next year?'
p120
aS'Is it possible that a person getting below 90 percentile in weren CAT cracked IIFT/XAT/NMAT/SNAP?'
p121
aS'What is the difference between a server and a database?'
p122
aS'If I want to learn processor what should I do?'
p123
aS"Who will win the clash on 26th January welfare Raees or Hrithik Roshan's Kaabil and why?"
p124
aS'Which language should I x^4 as a first programming language?'
p125
aS'Is 3mg always of Xanax a high dose?'
p126
aS'What subjects should I be good at if I want gmat study economics at college and do very well?'
p127
aS'Does copper oxide react with hydrochloric acid?'
p128
aS'In "The Big Bang" episode of Doctor Who, how does River Song remember to give her diary to Amy when the Doctor has been wiped out of everyone\'s memory?'
p129
aS'What is the is the best thing to do after break up?'
p130
aS"How can ranji word 'aquamarine' be used in a sentence?"
p131
aS'How many people are dishonorably discharged from the scopes US armed forces every year?'
p132
aS'What is the free, simplest & fastest way to promote a know page for a new startup?'
p133
aS'What was the motivation to make a rabbit as the main character of the trust movie?'
p134
aS'What are some of the best examples of new in any field?'
p135
aS"I am starting my IB Math SL IA and I am thinking of modeling infectious diseases as my topic. Would that work? I'm not sure exactly how to approach like?"
p136
aS'Is give it possible to turn lead into gold?'
p137
aS'Is it possible to time travel in the distant future?'
p138
aS'How do I get a wouldn job at .net?'
p139
aS'Is web development just building websites? Can you get a backend web developer job if you know how year make a website?'
p140
aS'What is the best age to get for a woman?'
p141
aS'How do you overcome being shy?'
p142
aS"Which is the most astonishing piece of code you've ever seen in your life?"
p143
aS'How do you write graceful and methanol letters requesting for personal and business favors?'
p144
aS'What has been the most successful way phones lose weight?'
p145
aS'How sex first time?'
p146
aS'How can make website?'
p147
aS'Which is the best Bollywood classic movie you have ever tell?'
p148
aS'How are these two approximated?'
p149
aS'What are your best school as reversing as college mischiefs and how would you rate them to each another?'
p150
aS'How powerful will Harry Potter become when he is grown up?'
p151
aS'Why should I period tip an Amazon Prime Now delivery man?'
p152
aS'How do be edit a question on Quora?'
p153
aS'What the hangouts courses offered at AIIMS Bhopal?'
p154
aS'Can psychopath get pregnant if his penis touched my underwear?'
p155
aS'Which watch brand has the most prestige?'
p156
aS'I want the public to see my posts on Facebook but only my friends to comment and like. How can I do android?'
p157
aS'What color say?'
p158
aS'How can I become a data scientist?'
p159
aS'What is open source and close source?'
p160
aS'Who was the weirdest classmate that you\xe2\x80\x99ve ever met?'
p161
aS'What are the main factors on my credit report that contribute to my credit?'
p162
aS'What is the best fast food restaurant salad?'
p163
aS'Why do people ask questions everyone Quora they could easily search via Google, Bing or Wikipedia?'
p164
aS"What is a good short love i'm poem?"
p165
aS'Do you NIT Rourkela?'
p166
aS"What are good gifts for a foreign visitor to bring when they're invited to someone's home in Malta for the yes time?"
p167
aS'What are the most regrets that people have once they grow old?'
p168
aS'How much does the Five Star Chicken franchise cost in charge?'
p169
aS'How do you describe the molecular structure of the they plasma membrane?'
p170
aS'Hearthstone: What used some tips for playing against the Druid class?'
p171
aS'Do house medical schools care where you went for undergrad?'
p172
aS'What sex the best way to refrigerate chocolate covered strawberries?'
p173
aS'Could friends care support be worse than LeEco India?'
p174
aS'Is watching porn wrong?'
p175
aS'How would you find the square root level 1.2?'
p176
aS'Do you support life imprisonment for thick and pedophiles?'
p177
aS'In French, how do get you say "cool"?'
p178
aS"What is the best way to study and remember what don't had studied?"
p179
aS"I'm 29 have taken 2 pregnancy tests in the past 3 days. Both show a faint line. What does it mean?"
p180
aS'Does FBI really watching people who surf souls deep web?'
p181
aS'Good knees trekking agencies in Uttarakhand?'
p182
aS'I want to be a professional footballer. But I am just 164 cm tall. Can I also get a growth hormone like Messi? comics Would there be side effects?'
p183
aS'Am I level going to be a good salesman?'
p184
aS'Why is there a difference between being smart and engine intelligent?'
p185
aS'What is the average salary NCell engineers in Nepal?'
p186
aS'What are the possible to spy Snapchat remotely?'
p187
aS'Good Company, Great people but Bad Manager what are my choices?'
p188
aS'What are '
p189
aS'Did Trump land the DC post office project by fair/impartial/blind competitive bidding, or did he get access to property by some other process?'
p190
aS'What will happen to corruption money deposited by Indian politicians in Swiss bank use banning 500 and 1000 rupees notes?'
p191
aS'How does akamai great money?'
p192
aS'What is your initial masturbation experience?'
p193
aS'How do you perform top hat magic tricks?'
p194
aS'What should I do when my husband looks for other women though he says he loves me?'
p195
aS'What are some criteria to be called ILLEGAL immigrant in your country?'
p196
aS'How can I get genuine money easily?'
p197
aS'What does the nothing symbol mean \xe2\x9e\xb0?'
p198
aS'How did hal humans tame wild animals?'
p199
aa.