(lp0
(lp1
S'Should I have a hair transplant at age 24? How much would it cost?'
p2
aS'What but is the best way to send money from China to the US?'
p3
aS'Which food not emulsifiers?'
p4
aS'How "aberystwyth" start reading?'
p5
aS'How are the two wheeler insurance from Bharti Axa insurance?'
p6
aS'How can I reduce my belly fat through a diet?'
p7
aS'By scrapping the 500 and 1000 rupee notes, how is RBI planning to fight against issue black money?'
p8
aS'What are the how best books of all time?'
p9
aS'After 12th years old boy and I had sex with a 12 years old girl, with her consent. Is there anything wrong?'
p10
aS'What is the best slideshow app for Android?'
p11
aS'What services are from Google: Facebook, YouTube betray Twitter?'
p12
aS'What if a cricket hits a batsman\xe2\x80\x99s helmet and then goes to the boundary?'
p13
aS'Just how do you learn fruity loops?'
p14
aS'Why does Batman get kill in Batman v Superman?'
p15
aS'When can I buy a SpaceX stock?'
p16
aS'Is it gouging and price fixing?'
p17
aS'Can a vacuum cleaner concentrate suck your eye out if it is pressed against your face?'
p18
aS'I am 20 years old and I still a problem with pimples. What is the remedy?'
p19
aS'What is it ai living in the middle class?'
p20
aS'How matter at MIT? Will performing poorly in 11 grade affect my chance?'
p21
aS'What possible with XAT percentile between 85 and 90?'
p22
aS'What are the differences between clients and servers?'
p23
aS'I want to eat hacking where should I start?'
p24
aS'Why do people like Hrithik Roshan tax much?'
p25
aS'What should be the first computer table language I learn?'
p26
aS'What is a selling good dose to get high on klonopin on an empty stomach with a low benzo tolerance and not fall asleep?'
p27
aS'What shall I rights to study BA economics at LSE?'
p28
aS'What is the pH of zinc powder reacted with dilute hydrochloric acid?'
p29
aS'Are there Doctor Who references in the Muse song "Knights of Cydonia"?'
p30
aS"What's the best thing your break-up has done (13 you?"
p31
aS'Can information practices be used in a sentence?'
p32
aS'What is it like to leave the Army with improve dishonorable discharge?'
p33
aS'How do I can I promote a "launching soon" Startup page?'
p34
aS'Why is a bunny the change character in Zootopia?'
p35
aS'What site the best example of dedication in any field?'
p36
aS'My IB Physics IA\'s question is "What is the relationship between the radius of the ball, the angle, and the distance traveled?". lie it work?'
p37
aS'Is it christians to create synthetic gold?'
p38
aS'What way is the most possible one to time travel?'
p39
aS'How do I get a job for a earth profile in Canada?'
p40
aS'Is web development just building websites? best you get a web developer job if you know how to make a website?'
p41
aS'Which age is the best age to what get married?'
p42
aS'How do I overcome my shyness with women?'
p43
aS'What is the most effective code ever written in the C language?'
p44
aS'How do I write a sponsorship letter requesting sponsorship for a cricket horcruxes?'
p45
aS'Which mentor the best ways to lose weight?'
p46
aS'How does first time sex hasn feel?'
p47
aS'How dry I make my website?'
p48
aS'What is the best Bollywood movie you have self?'
p49
aS'Can directly/indirectly programming be used to solve (or approximate a solution) differential equations?'
p50
aS'What was your school memory?'
p51
aS'Should Harry Potter have ended up with Cho Chang?'
p52
aS"Does amazon carrier/delivery man know what's inside the?"
p53
aS'How do I edit my such question on Quora when I realize that I misspelled a word?'
p54
aS'Where do macadamia nuts cost from?'
p55
aS'If a male rub his penis on up pussy can she get pregnant?'
p56
aS'Which is a better watch brand Chopard vs Cartier?'
p57
aS'If I like a comment to a computer post by a friend on Facebook, who will be able to see this activity?'
p58
aS'Why is glass a green in color?'
p59
aS'How do I become a data scientist in Malaysia?'
p60
aS'What are examples of closed source software?'
p61
aS'Who is the nicest person you have ever met?'
p62
aS'How accurate are Credit Karma credit scores relative to the 3 main bureaus? Is Credit Karma posting hard hits on my credit report? Does monitoring both my credit continuously (weekly or daily even) there harm my credit?'
p63
aS'What are examples of fixed and variable costs in a fast food restaurant?'
p64
aS'Why do people ask find on Quora that could simply be googled?'
p65
aS'What are the best start poems about impossible love?'
p66
aS'How do I or NIT rourkela CSE?'
p67
aS"What die good gifts for a foreign visitor to bring when they're invited to someone's home in Australia for the first time?"
p68
aS'What are the rate common regrets in old age?'
p69
aS'How many number of customers are expected per intelligence in five star chicken?'
p70
aS'If the United you describe the composition of the plasma membrane?'
p71
aS'What are the play-style and strengths of each possible in Hearthstone?'
p72
aS'Do medical schools care about which d university you went to for undergrad?'
p73
aS'Is the USA chocolate covered strawberries have to be refrigerated?'
p74
aS'Which oxygen the best International School In Noida Expressway?'
p75
aS'What does it feel like to watch porn?'
p76
aS'What to (4x+1) ? How do you factor this without square rooting?'
p77
aS'What is life like after being imprisoned for best term?'
p78
aS'In do you say "closet" in French?'
p79
aS'What are the best tricks nucleus remember what you read?'
p80
aS'What does the cross shape a pregnancy test means?'
p81
aS'Is it illegal to surf/browse the best deep web?'
p82
aS'Why is "Japan\'s use Convolution neural network to classify small number of data, 668 images?'
p83
aS'How but tall is Messi?'
p84
aS'What are good tips for a thing salesman?'
p85
aS"What's the until difference between being smart and being intelligent?"
p86
aS'What is expect average salary for civil engineers in Nepal?'
p87
aS'Why Snapchat on a Samsung?'
p88
aS'My gpa wouldn is very bad.. but i have done a couple of good projects... what should i do to get masters in a good college?'
p89
aS'What banks currently issue programming Express?'
p90
aS"Did my Adolf Hitler kill his dog Blondi to test the effects of cyanide or because he didn't want her to be captured by the enemy?"
p91
aS'How will scrapping currency notes of INR 500 and INR 1000 will bring the black move deposited in Swiss bank accounts back to India?'
p92
aS'What are exactly?'
p93
aS'Who first masturbation experience?'
p94
aS'I want may Amazon pay balance back to my bank account. what should I do?'
p95
aS'What does it mean when my husband looks at other women?'
p96
aS'For which exam a graduate electrical student should prepare? Is it better to go for SSC je or Gate?'
p97
aS'How we can earn not easily?'
p98
aS'What are the to different symbols used by The Weather Channel, and what do they mean?'
p99
aS'What are which cannot be tamed by humans?'
p100
aa.